; Function Attrs: mustprogress nofree norecurse nosync nounwind willreturn memory(read, inaccessiblemem: none) uwtable
define noundef zeroext i1 @_ZTv0_n64_NK5arrow2io12BufferReader6closedEv(ptr nocapture noundef readonly %this) unnamed_addr #13 align 2 {
entry:
  %0 = load ptr, ptr %this, align 8
  %1 = getelementptr inbounds i8, ptr %0, i64 -64
  %2 = load i64, ptr %1, align 8
  %3 = getelementptr inbounds i8, ptr %this, i64 %2
  %is_open_.i = getelementptr inbounds i8, ptr %3, i64 80
  %4 = load i8, ptr %is_open_.i, align 8
  %5 = and i8 %4, 1
  %tobool.not.i = icmp eq i8 %5, 0
  ret i1 %tobool.not.i
}